; ModuleID = 'source-C-CXX/37/93.cpp'
source_filename = "source-C-CXX/37/93.cpp"
target datalayout = "e-m:e-p270:32:32-p271:32:32-p272:64:64-i64:64-f80:128-n8:16:32:64-S128"
target triple = "x86_64-pc-linux-gnu"

%"class.std::ios_base::Init" = type { i8 }
%"class.std::basic_istream" = type { i32 (...)**, i64, %"class.std::basic_ios" }
%"class.std::basic_ios" = type { %"class.std::ios_base", %"class.std::basic_ostream"*, i8, i8, %"class.std::basic_streambuf"*, %"class.std::ctype"*, %"class.std::num_put"*, %"class.std::num_get"* }
%"class.std::ios_base" = type { i32 (...)**, i64, i64, i32, i32, i32, %"struct.std::ios_base::_Callback_list"*, %"struct.std::ios_base::_Words", [8 x %"struct.std::ios_base::_Words"], i32, %"struct.std::ios_base::_Words"*, %"class.std::locale" }
%"struct.std::ios_base::_Callback_list" = type { %"struct.std::ios_base::_Callback_list"*, void (i32, %"class.std::ios_base"*, i32)*, i32, i32 }
%"struct.std::ios_base::_Words" = type { i8*, i64 }
%"class.std::locale" = type { %"class.std::locale::_Impl"* }
%"class.std::locale::_Impl" = type { i32, %"class.std::locale::facet"**, i64, %"class.std::locale::facet"**, i8** }
%"class.std::locale::facet" = type <{ i32 (...)**, i32, [4 x i8] }>
%"class.std::basic_ostream" = type { i32 (...)**, %"class.std::basic_ios" }
%"class.std::basic_streambuf" = type { i32 (...)**, i8*, i8*, i8*, i8*, i8*, i8*, %"class.std::locale" }
%"class.std::ctype" = type <{ %"class.std::locale::facet.base", [4 x i8], %struct.__locale_struct*, i8, [7 x i8], i32*, i32*, i16*, i8, [256 x i8], [256 x i8], i8, [6 x i8] }>
%"class.std::locale::facet.base" = type <{ i32 (...)**, i32 }>
%struct.__locale_struct = type { [13 x %struct.__locale_data*], i16*, i32*, i32*, [13 x i8*] }
%struct.__locale_data = type opaque
%"class.std::num_put" = type { %"class.std::locale::facet.base", [4 x i8] }
%"class.std::num_get" = type { %"class.std::locale::facet.base", [4 x i8] }

@_ZStL8__ioinit = internal global %"class.std::ios_base::Init" zeroinitializer, align 1
@__dso_handle = external hidden global i8
@_ZSt3cin = external global %"class.std::basic_istream", align 8
@.str = private unnamed_addr constant [6 x i8] c"%.5f\0A\00", align 1
@llvm.global_ctors = appending global [1 x { i32, void ()*, i8* }] [{ i32, void ()*, i8* } { i32 65535, void ()* @_GLOBAL__sub_I_93.cpp, i8* null }]

declare void @_ZNSt8ios_base4InitC1Ev(%"class.std::ios_base::Init"* nonnull align 1 dereferenceable(1)) unnamed_addr #0

; Function Attrs: nounwind
declare void @_ZNSt8ios_base4InitD1Ev(%"class.std::ios_base::Init"* nonnull align 1 dereferenceable(1)) unnamed_addr #1

; Function Attrs: nofree nounwind
declare i32 @__cxa_atexit(void (i8*)*, i8*, i8*) local_unnamed_addr #2

; Function Attrs: mustprogress norecurse sspstrong uwtable
define dso_local i32 @main() local_unnamed_addr #3 {
  %1 = alloca i32, align 4
  %2 = alloca i32, align 4
  %3 = alloca [101 x double], align 16
  %4 = bitcast i32* %1 to i8*
  call void @llvm.lifetime.start.p0i8(i64 4, i8* nonnull %4) #8
  %5 = bitcast i32* %2 to i8*
  call void @llvm.lifetime.start.p0i8(i64 4, i8* nonnull %5) #8
  %6 = bitcast [101 x double]* %3 to i8*
  call void @llvm.lifetime.start.p0i8(i64 808, i8* nonnull %6) #8
  %7 = call nonnull align 8 dereferenceable(16) %"class.std::basic_istream"* @_ZNSirsERi(%"class.std::basic_istream"* nonnull align 8 dereferenceable(16) @_ZSt3cin, i32* nonnull align 4 dereferenceable(4) %1)
  %8 = load i32, i32* %1, align 4, !tbaa !5
  %9 = icmp sgt i32 %8, 0
  br i1 %9, label %10, label %94

10:                                               ; preds = %0, %85
  %11 = call nonnull align 8 dereferenceable(16) %"class.std::basic_istream"* @_ZNSirsERi(%"class.std::basic_istream"* nonnull align 8 dereferenceable(16) @_ZSt3cin, i32* nonnull align 4 dereferenceable(4) %2)
  %12 = load i32, i32* %2, align 4, !tbaa !5
  %13 = icmp sgt i32 %12, 0
  br i1 %13, label %16, label %14

14:                                               ; preds = %10
  %15 = sitofp i32 %12 to double
  br label %85

16:                                               ; preds = %10, %16
  %17 = phi i64 [ %23, %16 ], [ 0, %10 ]
  %18 = phi double [ %22, %16 ], [ 0.000000e+00, %10 ]
  %19 = getelementptr inbounds [101 x double], [101 x double]* %3, i64 0, i64 %17
  %20 = call nonnull align 8 dereferenceable(16) %"class.std::basic_istream"* @_ZNSi10_M_extractIdEERSiRT_(%"class.std::basic_istream"* nonnull align 8 dereferenceable(16) @_ZSt3cin, double* nonnull align 8 dereferenceable(8) %19)
  %21 = load double, double* %19, align 8, !tbaa !9
  %22 = fadd double %18, %21
  %23 = add nuw nsw i64 %17, 1
  %24 = load i32, i32* %2, align 4, !tbaa !5
  %25 = sext i32 %24 to i64
  %26 = icmp slt i64 %23, %25
  br i1 %26, label %16, label %27, !llvm.loop !11

27:                                               ; preds = %16
  %28 = sitofp i32 %24 to double
  %29 = fdiv double %22, %28
  %30 = icmp sgt i32 %24, 0
  br i1 %30, label %31, label %85

31:                                               ; preds = %27
  %32 = zext i32 %24 to i64
  %33 = add nsw i64 %32, -1
  %34 = and i64 %32, 3
  %35 = icmp ult i64 %33, 3
  br i1 %35, label %68, label %36

36:                                               ; preds = %31
  %37 = and i64 %32, 4294967292
  br label %38

38:                                               ; preds = %38, %36
  %39 = phi i64 [ 0, %36 ], [ %65, %38 ]
  %40 = phi double [ 0.000000e+00, %36 ], [ %64, %38 ]
  %41 = phi i64 [ %37, %36 ], [ %66, %38 ]
  %42 = getelementptr inbounds [101 x double], [101 x double]* %3, i64 0, i64 %39
  %43 = load double, double* %42, align 16, !tbaa !9
  %44 = fsub double %43, %29
  %45 = fmul double %44, %44
  %46 = fadd double %40, %45
  %47 = or i64 %39, 1
  %48 = getelementptr inbounds [101 x double], [101 x double]* %3, i64 0, i64 %47
  %49 = load double, double* %48, align 8, !tbaa !9
  %50 = fsub double %49, %29
  %51 = fmul double %50, %50
  %52 = fadd double %46, %51
  %53 = or i64 %39, 2
  %54 = getelementptr inbounds [101 x double], [101 x double]* %3, i64 0, i64 %53
  %55 = load double, double* %54, align 16, !tbaa !9
  %56 = fsub double %55, %29
  %57 = fmul double %56, %56
  %58 = fadd double %52, %57
  %59 = or i64 %39, 3
  %60 = getelementptr inbounds [101 x double], [101 x double]* %3, i64 0, i64 %59
  %61 = load double, double* %60, align 8, !tbaa !9
  %62 = fsub double %61, %29
  %63 = fmul double %62, %62
  %64 = fadd double %58, %63
  %65 = add nuw nsw i64 %39, 4
  %66 = add i64 %41, -4
  %67 = icmp eq i64 %66, 0
  br i1 %67, label %68, label %38, !llvm.loop !13

68:                                               ; preds = %38, %31
  %69 = phi double [ undef, %31 ], [ %64, %38 ]
  %70 = phi i64 [ 0, %31 ], [ %65, %38 ]
  %71 = phi double [ 0.000000e+00, %31 ], [ %64, %38 ]
  %72 = icmp eq i64 %34, 0
  br i1 %72, label %85, label %73

73:                                               ; preds = %68, %73
  %74 = phi i64 [ %82, %73 ], [ %70, %68 ]
  %75 = phi double [ %81, %73 ], [ %71, %68 ]
  %76 = phi i64 [ %83, %73 ], [ %34, %68 ]
  %77 = getelementptr inbounds [101 x double], [101 x double]* %3, i64 0, i64 %74
  %78 = load double, double* %77, align 8, !tbaa !9
  %79 = fsub double %78, %29
  %80 = fmul double %79, %79
  %81 = fadd double %75, %80
  %82 = add nuw nsw i64 %74, 1
  %83 = add i64 %76, -1
  %84 = icmp eq i64 %83, 0
  br i1 %84, label %85, label %73, !llvm.loop !14

85:                                               ; preds = %68, %73, %14, %27
  %86 = phi double [ %28, %27 ], [ %15, %14 ], [ %28, %73 ], [ %28, %68 ]
  %87 = phi double [ 0.000000e+00, %27 ], [ 0.000000e+00, %14 ], [ %69, %68 ], [ %81, %73 ]
  %88 = fdiv double %87, %86
  %89 = call double @sqrt(double %88) #8
  %90 = call i32 (i8*, ...) @printf(i8* nonnull dereferenceable(1) getelementptr inbounds ([6 x i8], [6 x i8]* @.str, i64 0, i64 0), double %89)
  %91 = load i32, i32* %1, align 4, !tbaa !5
  %92 = add nsw i32 %91, -1
  store i32 %92, i32* %1, align 4, !tbaa !5
  %93 = icmp sgt i32 %91, 1
  br i1 %93, label %10, label %94, !llvm.loop !16

94:                                               ; preds = %85, %0
  call void @llvm.lifetime.end.p0i8(i64 808, i8* nonnull %6) #8
  call void @llvm.lifetime.end.p0i8(i64 4, i8* nonnull %5) #8
  call void @llvm.lifetime.end.p0i8(i64 4, i8* nonnull %4) #8
  ret i32 0
}

; Function Attrs: argmemonly mustprogress nofree nosync nounwind willreturn
declare void @llvm.lifetime.start.p0i8(i64 immarg, i8* nocapture) #4

declare nonnull align 8 dereferenceable(16) %"class.std::basic_istream"* @_ZNSirsERi(%"class.std::basic_istream"* nonnull align 8 dereferenceable(16), i32* nonnull align 4 dereferenceable(4)) local_unnamed_addr #0

; Function Attrs: mustprogress nofree nounwind willreturn
declare double @sqrt(double) local_unnamed_addr #5

; Function Attrs: nofree nounwind
declare noundef i32 @printf(i8* nocapture noundef readonly, ...) local_unnamed_addr #6

; Function Attrs: argmemonly mustprogress nofree nosync nounwind willreturn
declare void @llvm.lifetime.end.p0i8(i64 immarg, i8* nocapture) #4

declare nonnull align 8 dereferenceable(16) %"class.std::basic_istream"* @_ZNSi10_M_extractIdEERSiRT_(%"class.std::basic_istream"* nonnull align 8 dereferenceable(16), double* nonnull align 8 dereferenceable(8)) local_unnamed_addr #0

; Function Attrs: sspstrong uwtable
define internal void @_GLOBAL__sub_I_93.cpp() #7 section ".text.startup" {
  tail call void @_ZNSt8ios_base4InitC1Ev(%"class.std::ios_base::Init"* nonnull align 1 dereferenceable(1) @_ZStL8__ioinit)
  %1 = tail call i32 @__cxa_atexit(void (i8*)* bitcast (void (%"class.std::ios_base::Init"*)* @_ZNSt8ios_base4InitD1Ev to void (i8*)*), i8* getelementptr inbounds (%"class.std::ios_base::Init", %"class.std::ios_base::Init"* @_ZStL8__ioinit, i64 0, i32 0), i8* nonnull @__dso_handle) #8
  ret void
}


!llvm.module.flags = !{!0, !1, !2, !3}
!llvm.ident = !{!4}

!0 = !{i32 1, !"wchar_size", i32 4}
!1 = !{i32 7, !"PIC Level", i32 2}
!2 = !{i32 7, !"PIE Level", i32 2}
!3 = !{i32 7, !"uwtable", i32 1}
!4 = !{!"clang version 13.0.0"}
!5 = !{!6, !6, i64 0}
!6 = !{!"int", !7, i64 0}
!7 = !{!"omnipotent char", !8, i64 0}
!8 = !{!"Simple C++ TBAA"}
!9 = !{!10, !10, i64 0}
!10 = !{!"double", !7, i64 0}
!11 = distinct !{!11, !12}
!12 = !{!"llvm.loop.mustprogress"}
!13 = distinct !{!13, !12}
!14 = distinct !{!14, !15}
!15 = !{!"llvm.loop.unroll.disable"}
!16 = distinct !{!16, !12}
